; Function Attrs: mustprogress uwtable
define void @_ZN5arrow7compute16FunctionRegistry14CanAddFunctionESt10shared_ptrINS0_8FunctionEEb(ptr dead_on_unwind noalias writable sret(%"class.arrow::Status") align 8 %0, ptr noundef nonnull readonly align 8 captures(none) dereferenceable(8) %1, ptr noundef captures(none) %2, i1 noundef zeroext %3) local_unnamed_addr #1 align 2 personality ptr @__gxx_personality_v0 {
  %5 = alloca %"class.std::shared_ptr", align 8
  %6 = load ptr, ptr %1, align 8, !tbaa !35
  %7 = load ptr, ptr %2, align 8, !tbaa !56
  store ptr %7, ptr %5, align 8, !tbaa !56
  %8 = getelementptr inbounds nuw i8, ptr %5, i64 8
  %9 = getelementptr inbounds nuw i8, ptr %2, i64 8
  %10 = load ptr, ptr %9, align 8, !tbaa !60
  store ptr null, ptr %9, align 8, !tbaa !60
  store ptr %10, ptr %8, align 8, !tbaa !60
  store ptr null, ptr %2, align 8, !tbaa !56
  invoke void @_ZN5arrow7compute16FunctionRegistry20FunctionRegistryImpl14CanAddFunctionESt10shared_ptrINS0_8FunctionEEb(ptr dead_on_unwind writable sret(%"class.arrow::Status") align 8 %0, ptr noundef nonnull align 8 dereferenceable(168) %6, ptr noundef nonnull %5, i1 noundef zeroext %3)
          to label %11 unwind label %34

11:                                               ; preds = %4
  %12 = load ptr, ptr %8, align 8, !tbaa !60
  %.not.i.i = icmp eq ptr %12, null
  br i1 %.not.i.i, label %_ZNSt12__shared_ptrIN5arrow7compute8FunctionELN9__gnu_cxx12_Lock_policyE2EED2Ev.exit, label %13

13:                                               ; preds = %11
  %14 = getelementptr inbounds nuw i8, ptr %12, i64 8
  %15 = load atomic i64, ptr %14 acquire, align 8
  %16 = icmp eq i64 %15, 4294967297
  %17 = trunc i64 %15 to i32
  br i1 %16, label %18, label %26

18:                                               ; preds = %13
  store i32 0, ptr %14, align 8, !tbaa !61
  %19 = getelementptr inbounds nuw i8, ptr %12, i64 12
  store i32 0, ptr %19, align 4, !tbaa !63
  %20 = load ptr, ptr %12, align 8, !tbaa !64
  %21 = getelementptr inbounds nuw i8, ptr %20, i64 16
  %22 = load ptr, ptr %21, align 8
  call void %22(ptr noundef nonnull align 8 dereferenceable(16) %12) #26
  %23 = load ptr, ptr %12, align 8, !tbaa !64
  %24 = getelementptr inbounds nuw i8, ptr %23, i64 24
  %25 = load ptr, ptr %24, align 8
  call void %25(ptr noundef nonnull align 8 dereferenceable(16) %12) #26
  br label %_ZNSt12__shared_ptrIN5arrow7compute8FunctionELN9__gnu_cxx12_Lock_policyE2EED2Ev.exit

26:                                               ; preds = %13
  %27 = load i8, ptr @__libc_single_threaded, align 1, !tbaa !66
  %.not.i.i.i = icmp eq i8 %27, 0
  br i1 %.not.i.i.i, label %30, label %28

28:                                               ; preds = %26
  %29 = add nsw i32 %17, -1
  store i32 %29, ptr %14, align 4, !tbaa !67
  br label %_ZN9__gnu_cxx27__exchange_and_add_dispatchEPii.exit.i.i.i

30:                                               ; preds = %26
  %31 = atomicrmw volatile add ptr %14, i32 -1 acq_rel, align 4
  br label %_ZN9__gnu_cxx27__exchange_and_add_dispatchEPii.exit.i.i.i

_ZN9__gnu_cxx27__exchange_and_add_dispatchEPii.exit.i.i.i: ; preds = %30, %28
  %.0.i.i.i.i = phi i32 [ %17, %28 ], [ %31, %30 ]
  %32 = icmp eq i32 %.0.i.i.i.i, 1
  br i1 %32, label %33, label %_ZNSt12__shared_ptrIN5arrow7compute8FunctionELN9__gnu_cxx12_Lock_policyE2EED2Ev.exit, !prof !68

33:                                               ; preds = %_ZN9__gnu_cxx27__exchange_and_add_dispatchEPii.exit.i.i.i
  call void @_ZNSt16_Sp_counted_baseILN9__gnu_cxx12_Lock_policyE2EE24_M_release_last_use_coldEv(ptr noundef nonnull align 8 dereferenceable(16) %12) #26
  br label %_ZNSt12__shared_ptrIN5arrow7compute8FunctionELN9__gnu_cxx12_Lock_policyE2EED2Ev.exit

_ZNSt12__shared_ptrIN5arrow7compute8FunctionELN9__gnu_cxx12_Lock_policyE2EED2Ev.exit: ; preds = %11, %18, %_ZN9__gnu_cxx27__exchange_and_add_dispatchEPii.exit.i.i.i, %33
  ret void

34:                                               ; preds = %4
  %35 = landingpad { ptr, i32 }
          cleanup
  call void @_ZNSt12__shared_ptrIN5arrow7compute8FunctionELN9__gnu_cxx12_Lock_policyE2EED2Ev(ptr noundef nonnull align 8 dereferenceable(16) %5) #26
  resume { ptr, i32 } %35
}